target datalayout = "e-m:e-p270:32:32-p271:32:32-p272:64:64-i64:64-i128:128-f80:128-n8:16:32:64-S128"
target triple = "x86_64-unknown-linux-gnu"

%"class.icu_75::SPUStringPool" = type { ptr, ptr }

; Function Attrs: mustprogress nounwind uwtable
define void @_ZN6icu_7513SPUStringPoolD2Ev(ptr noundef nonnull align 8 dereferenceable(16) %this) unnamed_addr #1 align 2 personality ptr @__gxx_personality_v0 {
entry:
  %this.addr = alloca ptr, align 8
  store ptr %this, ptr %this.addr, align 8
  %this1 = load ptr, ptr %this.addr, align 8
  %fVec = getelementptr inbounds %"class.icu_75::SPUStringPool", ptr %this1, i32 0, i32 0
  %0 = load ptr, ptr %fVec, align 8
  %isnull = icmp eq ptr %0, null
  br i1 %isnull, label %delete.end, label %delete.notnull

delete.notnull:                                   ; preds = %entry
  %vtable = load ptr, ptr %0, align 8
  %vfn = getelementptr inbounds ptr, ptr %vtable, i64 1
  %1 = load ptr, ptr %vfn, align 8
  call void %1(ptr noundef nonnull align 8 dereferenceable(40) %0) #6
  br label %delete.end

delete.end:                                       ; preds = %delete.notnull, %entry
  %fHash = getelementptr inbounds %"class.icu_75::SPUStringPool", ptr %this1, i32 0, i32 1
  %2 = load ptr, ptr %fHash, align 8
  invoke void @uhash_close_75(ptr noundef %2)
          to label %invoke.cont unwind label %terminate.lpad

invoke.cont:                                      ; preds = %delete.end
  ret void

terminate.lpad:                                   ; preds = %delete.end
  %3 = landingpad { ptr, i32 }
          catch ptr null
  %4 = extractvalue { ptr, i32 } %3, 0
  call void @__clang_call_terminate(ptr %4) #7
  unreachable
}