; Function Attrs: mustprogress nounwind uwtable
define void @_ZN6icu_7513SPUStringPoolD2Ev(ptr nocapture noundef nonnull readonly align 8 dereferenceable(16) %this) unnamed_addr #1 align 2 personality ptr @__gxx_personality_v0 {
entry:
  %0 = load ptr, ptr %this, align 8
  %isnull = icmp eq ptr %0, null
  br i1 %isnull, label %delete.end, label %delete.notnull

delete.notnull:                                   ; preds = %entry
  %vtable = load ptr, ptr %0, align 8
  %vfn = getelementptr inbounds i8, ptr %vtable, i64 8
  %1 = load ptr, ptr %vfn, align 8
  tail call void %1(ptr noundef nonnull align 8 dereferenceable(40) %0) #10
  br label %delete.end

delete.end:                                       ; preds = %delete.notnull, %entry
  %fHash = getelementptr inbounds i8, ptr %this, i64 8
  %2 = load ptr, ptr %fHash, align 8
  invoke void @uhash_close_75(ptr noundef %2)
          to label %invoke.cont unwind label %terminate.lpad

invoke.cont:                                      ; preds = %delete.end
  ret void

terminate.lpad:                                   ; preds = %delete.end
  %3 = landingpad { ptr, i32 }
          catch ptr null
  %4 = extractvalue { ptr, i32 } %3, 0
  tail call void @__clang_call_terminate(ptr %4) #11
  unreachable
}